target datalayout = "e-m:e-p270:32:32-p271:32:32-p272:64:64-i64:64-i128:128-f80:128-n8:16:32:64-S128"
target triple = "x86_64-pc-linux-gnu"

%class.LogDecorators = type { i32 }
%class.LogFileStreamOutput = type { %class.LogOutput.base, i8, i8, ptr, [12 x i64] }
%class.LogOutput.base = type <{ ptr, i8, [7 x i8], %class.stringStream, %class.LogDecorators }>
%class.stringStream = type <{ %class.outputStream, ptr, i64, i64, i8, [48 x i8], [7 x i8] }>
%class.outputStream = type { ptr, i32, i8, i32, i64, %class.TimeStamp, ptr, i64 }
%class.TimeStamp = type { i64 }
%class.LogOutput = type <{ ptr, i8, [7 x i8], %class.stringStream, %class.LogDecorators, [4 x i8] }>

@.str.7 = private unnamed_addr constant [7 x i8] c"[%-*s]\00", align 1

; Function Attrs: mustprogress nounwind uwtable
define linkonce_odr hidden noundef i32 @_ZN13LogDecorators4maskENS_9DecoratorE(i32 noundef %0) #1 comdat align 2 {
  %2 = alloca i32, align 4
  store i32 %0, ptr %2, align 4
  %3 = load i32, ptr %2, align 4
  %4 = shl i32 1, %3
  ret i32 %4
}

; Function Attrs: mustprogress nounwind uwtable
define linkonce_odr hidden noundef zeroext i1 @_ZNK13LogDecorators12is_decoratorENS_9DecoratorE(ptr noundef nonnull align 4 dereferenceable(4) %0, i32 noundef %1) #1 comdat align 2 {
  %3 = alloca ptr, align 8
  %4 = alloca i32, align 4
  store ptr %0, ptr %3, align 8
  store i32 %1, ptr %4, align 4
  %5 = load ptr, ptr %3, align 8
  %6 = getelementptr inbounds %class.LogDecorators, ptr %5, i32 0, i32 0
  %7 = load i32, ptr %6, align 4
  %8 = load i32, ptr %4, align 4
  %9 = call noundef i32 @_ZN13LogDecorators4maskENS_9DecoratorE(i32 noundef %8)
  %10 = and i32 %7, %9
  %11 = icmp ne i32 %10, 0
  ret i1 %11
}

; Function Attrs: mustprogress nounwind uwtable
define hidden noundef i32 @_ZN19LogFileStreamOutput17write_decorationsERK14LogDecorations(ptr noundef nonnull align 8 dereferenceable(264) %0, ptr noundef nonnull align 8 dereferenceable(48) %1) #1 align 2 {
  %3 = alloca i32, align 4
  %4 = alloca ptr, align 8
  %5 = alloca ptr, align 8
  %6 = alloca i32, align 4
  %7 = alloca [256 x i8], align 16
  %8 = alloca i32, align 4
  %9 = alloca i32, align 4
  %10 = alloca i32, align 4
  store ptr %0, ptr %4, align 8
  store ptr %1, ptr %5, align 8
  %11 = load ptr, ptr %4, align 8
  store i32 0, ptr %6, align 4
  store i32 0, ptr %8, align 4
  br label %12

12:                                               ; preds = %60, %2
  %13 = load i32, ptr %8, align 4
  %14 = icmp ult i32 %13, 12
  br i1 %14, label %15, label %63

15:                                               ; preds = %12
  %16 = load i32, ptr %8, align 4
  store i32 %16, ptr %9, align 4
  %17 = getelementptr inbounds %class.LogOutput, ptr %11, i32 0, i32 4
  %18 = load i32, ptr %9, align 4
  %19 = call noundef zeroext i1 @_ZNK13LogDecorators12is_decoratorENS_9DecoratorE(ptr noundef nonnull align 4 dereferenceable(4) %17, i32 noundef %18)
  br i1 %19, label %21, label %20

20:                                               ; preds = %15
  br label %60

21:                                               ; preds = %15
  %22 = getelementptr inbounds %class.LogFileStreamOutput, ptr %11, i32 0, i32 3
  %23 = load ptr, ptr %22, align 8
  %24 = getelementptr inbounds %class.LogFileStreamOutput, ptr %11, i32 0, i32 4
  %25 = load i32, ptr %9, align 4
  %26 = zext i32 %25 to i64
  %27 = getelementptr inbounds [12 x i64], ptr %24, i64 0, i64 %26
  %28 = load i64, ptr %27, align 8
  %29 = load ptr, ptr %5, align 8
  %30 = load i32, ptr %9, align 4
  %31 = getelementptr inbounds [256 x i8], ptr %7, i64 0, i64 0
  %32 = call noundef ptr @_ZNK14LogDecorations10decorationEN13LogDecorators9DecoratorEPcm(ptr noundef nonnull align 8 dereferenceable(48) %29, i32 noundef %30, ptr noundef %31, i64 noundef 256)
  %33 = call i32 (ptr, ptr, ...) @jio_fprintf(ptr noundef %23, ptr noundef @.str.7, i64 noundef %28, ptr noundef %32)
  store i32 %33, ptr %10, align 4
  %34 = load i32, ptr %10, align 4
  %35 = icmp sle i32 %34, 0
  br i1 %35, label %36, label %37

36:                                               ; preds = %21
  store i32 -1, ptr %3, align 4
  br label %65

37:                                               ; preds = %21
  %38 = load i32, ptr %10, align 4
  %39 = sub nsw i32 %38, 2
  %40 = sext i32 %39 to i64
  %41 = getelementptr inbounds %class.LogFileStreamOutput, ptr %11, i32 0, i32 4
  %42 = load i32, ptr %9, align 4
  %43 = zext i32 %42 to i64
  %44 = getelementptr inbounds [12 x i64], ptr %41, i64 0, i64 %43
  %45 = load i64, ptr %44, align 8
  %46 = icmp ugt i64 %40, %45
  br i1 %46, label %47, label %55

47:                                               ; preds = %37
  %48 = load i32, ptr %10, align 4
  %49 = sub nsw i32 %48, 2
  %50 = sext i32 %49 to i64
  %51 = getelementptr inbounds %class.LogFileStreamOutput, ptr %11, i32 0, i32 4
  %52 = load i32, ptr %9, align 4
  %53 = zext i32 %52 to i64
  %54 = getelementptr inbounds [12 x i64], ptr %51, i64 0, i64 %53
  store i64 %50, ptr %54, align 8
  br label %55

55:                                               ; preds = %47, %37
  br label %56

56:                                               ; preds = %55
  %57 = load i32, ptr %10, align 4
  %58 = load i32, ptr %6, align 4
  %59 = add nsw i32 %58, %57
  store i32 %59, ptr %6, align 4
  br label %60

60:                                               ; preds = %56, %20
  %61 = load i32, ptr %8, align 4
  %62 = add i32 %61, 1
  store i32 %62, ptr %8, align 4
  br label %12, !llvm.loop !6

63:                                               ; preds = %12
  %64 = load i32, ptr %6, align 4
  store i32 %64, ptr %3, align 4
  br label %65

65:                                               ; preds = %63, %36
  %66 = load i32, ptr %3, align 4
  ret i32 %66
}