; Function Attrs: mustprogress nounwind uwtable
define hidden noundef range(i32 -1, -2147483648) i32 @_ZN19LogFileStreamOutput17write_decorationsERK14LogDecorations(ptr nocapture noundef nonnull align 8 dereferenceable(264) %0, ptr noundef nonnull align 8 dereferenceable(48) %1) local_unnamed_addr #0 align 2 {
  %3 = alloca [256 x i8], align 16
  %4 = getelementptr inbounds i8, ptr %0, i64 160
  %5 = getelementptr inbounds i8, ptr %0, i64 152
  %6 = getelementptr inbounds i8, ptr %0, i64 168
  br label %7

7:                                                ; preds = %2, %27
  %indvars.iv = phi i64 [ 0, %2 ], [ %indvars.iv.next, %27 ]
  %.01621 = phi i32 [ 0, %2 ], [ %.1, %27 ]
  %8 = load i32, ptr %5, align 8
  %9 = trunc nuw nsw i64 %indvars.iv to i32
  %10 = shl nuw nsw i32 1, %9
  %11 = and i32 %8, %10
  %.not = icmp eq i32 %11, 0
  br i1 %.not, label %27, label %12

12:                                               ; preds = %7
  %13 = load ptr, ptr %4, align 8
  %14 = getelementptr inbounds [12 x i64], ptr %6, i64 0, i64 %indvars.iv
  %15 = load i64, ptr %14, align 8
  %16 = call noundef ptr @_ZNK14LogDecorations10decorationEN13LogDecorators9DecoratorEPcm(ptr noundef nonnull align 8 dereferenceable(48) %1, i32 noundef %9, ptr noundef nonnull %3, i64 noundef 256) #10
  %17 = call i32 (ptr, ptr, ...) @jio_fprintf(ptr noundef %13, ptr noundef nonnull @.str.7, i64 noundef %15, ptr noundef %16) #10
  %18 = icmp slt i32 %17, 1
  br i1 %18, label %28, label %19

19:                                               ; preds = %12
  %20 = add nsw i32 %17, -2
  %21 = sext i32 %20 to i64
  %22 = load i64, ptr %14, align 8
  %23 = icmp ult i64 %22, %21
  br i1 %23, label %24, label %25

24:                                               ; preds = %19
  store i64 %21, ptr %14, align 8
  br label %25

25:                                               ; preds = %19, %24
  %26 = add nuw nsw i32 %17, %.01621
  br label %27

27:                                               ; preds = %7, %25
  %.1 = phi i32 [ %26, %25 ], [ %.01621, %7 ]
  %indvars.iv.next = add nuw nsw i64 %indvars.iv, 1
  %exitcond.not = icmp eq i64 %indvars.iv.next, 12
  br i1 %exitcond.not, label %28, label %7, !llvm.loop !6

28:                                               ; preds = %27, %12
  %.0 = phi i32 [ -1, %12 ], [ %.1, %27 ]
  ret i32 %.0
}